; Function Attrs: mustprogress uwtable
define hidden noundef zeroext i1 @_ZN16bound_simplifier9is_offsetEP4exprS1_R8rational(ptr noundef nonnull align 8 dereferenceable(3156) %0, ptr noundef readonly captures(none) %1, ptr noundef readnone captures(address) %2, ptr noundef nonnull align 8 dereferenceable(32) %3) local_unnamed_addr #3 align 2 {
  %5 = alloca i8, align 1
  %6 = getelementptr inbounds nuw i8, ptr %0, i64 32
  %7 = getelementptr inbounds nuw i8, ptr %1, i64 4
  %8 = load i32, ptr %7, align 4
  %9 = and i32 %8, 65535
  %10 = icmp eq i32 %9, 0
  br i1 %10, label %11, label %_ZNK17arith_recognizers6is_addEPK4exprRPS0_S4_.exit.thread

11:                                               ; preds = %4
  %12 = getelementptr inbounds nuw i8, ptr %1, i64 16
  %13 = load ptr, ptr %12, align 8, !tbaa !73
  %14 = getelementptr inbounds nuw i8, ptr %13, i64 24
  %15 = load ptr, ptr %14, align 8, !tbaa !11
  %.not.i.i.i.i.i = icmp eq ptr %15, null
  br i1 %.not.i.i.i.i.i, label %_ZNK17arith_recognizers6is_addEPK4exprRPS0_S4_.exit.thread, label %_ZNK17arith_recognizers6is_addEPK4expr.exit.i

_ZNK17arith_recognizers6is_addEPK4expr.exit.i:    ; preds = %11
  %16 = load i32, ptr %15, align 8, !tbaa !17
  %17 = icmp eq i32 %16, 5
  %18 = getelementptr inbounds nuw i8, ptr %15, i64 4
  %19 = load i32, ptr %18, align 4
  %20 = icmp eq i32 %19, 6
  %21 = select i1 %17, i1 %20, i1 false
  br i1 %21, label %22, label %_ZNK17arith_recognizers6is_addEPK4exprRPS0_S4_.exit.thread

22:                                               ; preds = %_ZNK17arith_recognizers6is_addEPK4expr.exit.i
  %23 = getelementptr inbounds nuw i8, ptr %1, i64 24
  %24 = load i32, ptr %23, align 8, !tbaa !78
  %25 = icmp eq i32 %24, 2
  br i1 %25, label %26, label %_ZNK17arith_recognizers6is_addEPK4exprRPS0_S4_.exit.thread

26:                                               ; preds = %22
  %27 = getelementptr inbounds nuw i8, ptr %1, i64 32
  %28 = load ptr, ptr %27, align 8, !tbaa !23
  %29 = getelementptr inbounds nuw i8, ptr %1, i64 40
  %30 = load ptr, ptr %29, align 8, !tbaa !23
  %.not = icmp eq ptr %2, %28
  %31 = icmp eq ptr %30, %2
  %32 = select i1 %.not, i1 true, i1 %31
  br i1 %32, label %33, label %_ZNK17arith_recognizers6is_addEPK4exprRPS0_S4_.exit.thread

33:                                               ; preds = %26
  %spec.select16 = select i1 %.not, ptr %30, ptr %28
  call void @llvm.lifetime.start.p0(i64 1, ptr nonnull %5) #19
  %34 = call noundef zeroext i1 @_ZNK10arith_util10is_numeralEPK4exprR8rationalRb(ptr noundef nonnull align 8 dereferenceable(16) %6, ptr noundef %spec.select16, ptr noundef nonnull align 8 dereferenceable(32) %3, ptr noundef nonnull align 1 dereferenceable(1) %5)
  call void @llvm.lifetime.end.p0(i64 1, ptr nonnull %5) #19
  br label %_ZNK17arith_recognizers6is_addEPK4exprRPS0_S4_.exit.thread

_ZNK17arith_recognizers6is_addEPK4exprRPS0_S4_.exit.thread: ; preds = %11, %4, %_ZNK17arith_recognizers6is_addEPK4expr.exit.i, %22, %26, %33
  %.0 = phi i1 [ false, %26 ], [ %34, %33 ], [ false, %22 ], [ false, %_ZNK17arith_recognizers6is_addEPK4expr.exit.i ], [ false, %4 ], [ false, %11 ]
  ret i1 %.0
}